; Function Attrs: mustprogress nofree norecurse nosync nounwind willreturn memory(argmem: readwrite) uwtable
define noundef zeroext i1 @pxr_nc_1_0_GetColorSpaceM33Descriptor(ptr noundef readonly %0, ptr noundef writeonly %1) local_unnamed_addr #16 {
  %3 = icmp ne ptr %0, null
  %4 = icmp ne ptr %1, null
  %or.cond = and i1 %3, %4
  br i1 %or.cond, label %5, label %15

5:                                                ; preds = %2
  %6 = load ptr, ptr %0, align 8
  store ptr %6, ptr %1, align 8
  %7 = getelementptr inbounds nuw i8, ptr %0, i64 40
  %8 = load float, ptr %7, align 8
  %9 = getelementptr inbounds nuw i8, ptr %1, i64 44
  store float %8, ptr %9, align 4
  %10 = getelementptr inbounds nuw i8, ptr %0, i64 44
  %11 = load float, ptr %10, align 4
  %12 = getelementptr inbounds nuw i8, ptr %1, i64 48
  store float %11, ptr %12, align 8
  %13 = getelementptr inbounds nuw i8, ptr %1, i64 8
  %14 = getelementptr inbounds nuw i8, ptr %0, i64 56
  tail call void @llvm.memcpy.p0.p0.i64(ptr noundef nonnull align 8 dereferenceable(36) %13, ptr noundef nonnull align 8 dereferenceable(36) %14, i64 36, i1 false)
  br label %15

15:                                               ; preds = %2, %5
  ret i1 %or.cond
}